; Function Attrs: mustprogress nounwind uwtable
define dso_local noundef zeroext i1 @_ZN4llvm33IRSimilarityIdentifierWrapperPass14doFinalizationERNS_6ModuleE(ptr noundef nonnull align 8 captures(none) dereferenceable(40) %0, ptr nonnull readnone align 8 captures(none) %1) unnamed_addr #0 align 2 {
  %3 = getelementptr inbounds nuw i8, ptr %0, i64 32
  %4 = load ptr, ptr %3, align 8
  store ptr null, ptr %3, align 8
  %.not.i.i = icmp eq ptr %4, null
  br i1 %.not.i.i, label %_ZNSt10unique_ptrIN4llvm12IRSimilarity22IRSimilarityIdentifierESt14default_deleteIS2_EE5resetEPS2_.exit, label %_ZNKSt14default_deleteIN4llvm12IRSimilarity22IRSimilarityIdentifierEEclEPS2_.exit.i.i

_ZNKSt14default_deleteIN4llvm12IRSimilarity22IRSimilarityIdentifierEEclEPS2_.exit.i.i: ; preds = %2
  tail call void @_ZN4llvm12IRSimilarity22IRSimilarityIdentifierD2Ev(ptr noundef nonnull align 8 dereferenceable(328) %4) #24
  tail call void @_ZdlPvm(ptr noundef nonnull %4, i64 noundef 328) #26
  br label %_ZNSt10unique_ptrIN4llvm12IRSimilarity22IRSimilarityIdentifierESt14default_deleteIS2_EE5resetEPS2_.exit

_ZNSt10unique_ptrIN4llvm12IRSimilarity22IRSimilarityIdentifierESt14default_deleteIS2_EE5resetEPS2_.exit: ; preds = %2, %_ZNKSt14default_deleteIN4llvm12IRSimilarity22IRSimilarityIdentifierEEclEPS2_.exit.i.i
  ret i1 false
}